; Function Attrs: mustprogress nofree norecurse nosync nounwind sspstrong willreturn memory(read, inaccessiblemem: none) uwtable
define dso_local i64 @rb_iseq_absolute_path(ptr noundef readonly captures(none) %0) local_unnamed_addr #8 {
  %2 = getelementptr inbounds nuw i8, ptr %0, i64 16
  %3 = load ptr, ptr %2, align 8, !tbaa !7
  %4 = getelementptr inbounds nuw i8, ptr %3, i64 64
  %5 = load i64, ptr %4, align 8, !tbaa !240
  %6 = icmp ne i64 %5, 0
  %7 = and i64 %5, 7
  %8 = icmp eq i64 %7, 0
  %.not4.i = and i1 %6, %8
  %.pre.i.i = inttoptr i64 %5 to ptr
  %.pre.i = load i64, ptr %.pre.i.i, align 8, !tbaa !74
  %9 = and i64 %.pre.i, 31
  %10 = icmp eq i64 %9, 5
  %or.cond.i = select i1 %.not4.i, i1 %10, i1 false
  br i1 %or.cond.i, label %rb_iseq_realpath.exit, label %rbimpl_RB_TYPE_P_fastpath.exit.thread.i.i

rbimpl_RB_TYPE_P_fastpath.exit.thread.i.i:        ; preds = %1
  %11 = and i64 %.pre.i, 8192
  %.not.i.i.i.i = icmp eq i64 %11, 0
  br i1 %.not.i.i.i.i, label %14, label %12

12:                                               ; preds = %rbimpl_RB_TYPE_P_fastpath.exit.thread.i.i
  %13 = getelementptr inbounds nuw i8, ptr %.pre.i.i, i64 16
  br label %RARRAY_AREF.exit.i.i

14:                                               ; preds = %rbimpl_RB_TYPE_P_fastpath.exit.thread.i.i
  %15 = getelementptr inbounds nuw i8, ptr %.pre.i.i, i64 32
  %16 = load ptr, ptr %15, align 8, !tbaa !84
  br label %RARRAY_AREF.exit.i.i

RARRAY_AREF.exit.i.i:                             ; preds = %14, %12
  %.0.i.i.i.i = phi ptr [ %13, %12 ], [ %16, %14 ]
  %17 = getelementptr i8, ptr %.0.i.i.i.i, i64 8
  %18 = load i64, ptr %17, align 8, !tbaa !42
  br label %rb_iseq_realpath.exit

rb_iseq_realpath.exit:                            ; preds = %1, %RARRAY_AREF.exit.i.i
  %.0.i.i = phi i64 [ %18, %RARRAY_AREF.exit.i.i ], [ %5, %1 ]
  ret i64 %.0.i.i
}